(dp0
S'L'
p1
ccopy_reg
_reconstructor
p2
(cLSystem
LSystem
p3
c__builtin__
object
p4
Ntp5
Rp6
(dp7
S'niter'
p8
I3
sS'angle'
p9
I120
sS'maxlen'
p10
Finf
sS'LHS'
p11
(lp12
S'F'
p13
aS'G'
p14
asS'RHS'
p15
(lp16
S'F-G+F+G-F'
p17
aS'GG'
p18
asS'axiom'
p19
g13
sbsS'distractors'
p20
(lp21
g2
(g3
g4
Ntp22
Rp23
(dp24
g8
I1
sg9
I120
sg15
(lp25
S'G-G+F+G-G-G+F+G-G'
p26
aS'GGG'
p27
asg10
Finf
sg11
(lp28
S'F'
p29
aS'G'
p30
asg19
S'F-G+F+G-F-GG+F-G+F+G-F+GG-F-G+F+G-F-GGGG+F-G+F+G-F-GG+F-G+F+G-F+GG-F-G+F+G-F+GGGG-F-G+F+G-F-GG+F-G+F+G-F+GG-F-G+F+G-F'
p31
sbag2
(g3
g4
Ntp32
Rp33
(dp34
g8
I1
sg9
I120
sg15
(lp35
S'F-G+F-F+G+F-F+G-F'
p36
aS'GGG'
p37
asg10
Finf
sg11
(lp38
g29
ag30
asg19
g31
sbag2
(g3
g4
Ntp39
Rp40
(dp41
g8
I1
sg9
I120
sg15
(lp42
S'GGFG-F+G+F-GFGG'
p43
aS'GGGGGGGG'
p44
asg10
Finf
sg11
(lp45
g29
aS'G'
p46
asg19
g31
sbag2
(g3
g4
Ntp47
Rp48
(dp49
g8
I1
sg9
I120
sg15
(lp50
S'F-F-F-F'
p51
ag46
asg10
Finf
sg11
(lp52
g29
ag46
asg19
g31
sbag2
(g3
g4
Ntp53
Rp54
(dp55
g8
I1
sg9
I120
sg15
(lp56
S'F-G+GGG+G-F'
p57
aS'GGGG'
p58
asg10
Finf
sg11
(lp59
g29
ag46
asg19
g31
sbas.