(dp0
S'L'
p1
ccopy_reg
_reconstructor
p2
(cLSystem
LSystem
p3
c__builtin__
object
p4
Ntp5
Rp6
(dp7
S'niter'
p8
I3
sS'angle'
p9
I60
sS'maxlen'
p10
Finf
sS'LHS'
p11
(lp12
S'F'
p13
aS'G'
p14
asS'RHS'
p15
(lp16
S'F-F+F+F-F'
p17
aS'GGGG'
p18
asS'axiom'
p19
g13
sbsS'distractors'
p20
(lp21
g2
(g3
g4
Ntp22
Rp23
(dp24
g8
I1
sg9
I60
sg15
(lp25
S'G--G++F++G--G'
p26
aS'GG'
p27
asg10
Finf
sg11
(lp28
S'F'
p29
aS'G'
p30
asg19
S'F-F+F+F-F-F-F+F+F-F+F-F+F+F-F+F-F+F+F-F-F-F+F+F-F-F-F+F+F-F-F-F+F+F-F+F-F+F+F-F+F-F+F+F-F-F-F+F+F-F+F-F+F+F-F-F-F+F+F-F+F-F+F+F-F+F-F+F+F-F-F-F+F+F-F+F-F+F+F-F-F-F+F+F-F+F-F+F+F-F+F-F+F+F-F-F-F+F+F-F-F-F+F+F-F-F-F+F+F-F+F-F+F+F-F+F-F+F+F-F-F-F+F+F-F'
p31
sbag2
(g3
g4
Ntp32
Rp33
(dp34
g8
I1
sg9
I60
sg15
(lp35
S'G-G++G-G'
p36
aS'GGG'
p37
asg10
Finf
sg11
(lp38
g29
ag30
asg19
g31
sbag2
(g3
g4
Ntp39
Rp40
(dp41
g8
I1
sg9
I60
sg15
(lp42
S'F--G++++G--F'
p43
ag30
asg10
Finf
sg11
(lp44
g29
ag30
asg19
g31
sbag2
(g3
g4
Ntp45
Rp46
(dp47
g8
I1
sg9
I60
sg15
(lp48
S'FF-F+F+F-FF'
p49
aS'GGGGGG'
p50
asg10
Finf
sg11
(lp51
g29
ag30
asg19
g31
sbag2
(g3
g4
Ntp52
Rp53
(dp54
g8
I1
sg9
I60
sg15
(lp55
S'G-G+F-F+F+F-F+G-G'
p56
aS'GGGGGGG'
p57
asg10
Finf
sg11
(lp58
g29
ag30
asg19
g31
sbas.