(dp0
S'L'
p1
ccopy_reg
_reconstructor
p2
(cLSystem
LSystem
p3
c__builtin__
object
p4
Ntp5
Rp6
(dp7
S'niter'
p8
I3
sS'angle'
p9
I120
sS'maxlen'
p10
Finf
sS'LHS'
p11
(lp12
S'F'
p13
aS'G'
p14
asS'RHS'
p15
(lp16
S'G-F+G+F-G'
p17
aS'GG'
p18
asS'axiom'
p19
g13
sbsS'distractors'
p20
(lp21
g2
(g3
g4
Ntp22
Rp23
(dp24
g8
I1
sg9
I120
sg15
(lp25
S'G-G+G-G+F+G-G+G-G'
p26
aS'GGG'
p27
asg10
Finf
sg11
(lp28
S'F'
p29
aS'G'
p30
asg19
S'GGGG-GG-G-F+G+F-G+GG+G-F+G+F-G-GG+GGGG+GG-G-F+G+F-G+GG+G-F+G+F-G-GG-GGGG'
p31
sbag2
(g3
g4
Ntp32
Rp33
(dp34
g8
I1
sg9
I120
sg15
(lp35
S'G-F+G+G-F-G+G+F-G'
p36
aS'GGG'
p37
asg10
Finf
sg11
(lp38
g29
ag30
asg19
g31
sbag2
(g3
g4
Ntp39
Rp40
(dp41
g8
I1
sg9
I120
sg15
(lp42
S'G-G+F-G+G+G-G-G+G+G-F+G-G'
p43
aS'GGGG'
p44
asg10
Finf
sg11
(lp45
g29
ag30
asg19
g31
sbag2
(g3
g4
Ntp46
Rp47
(dp48
g8
I1
sg9
I120
sg15
(lp49
S'F-G+FFFFFF+G-F'
p50
aS'GGGGGGG'
p51
asg10
Finf
sg11
(lp52
g29
aS'G'
p53
asg19
g31
sbag2
(g3
g4
Ntp54
Rp55
(dp56
g8
I1
sg9
I120
sg15
(lp57
S'G-F-F-G'
p58
ag53
asg10
Finf
sg11
(lp59
g29
ag53
asg19
g31
sbas.