(dp0
S'L'
p1
ccopy_reg
_reconstructor
p2
(cLSystem
LSystem
p3
c__builtin__
object
p4
Ntp5
Rp6
(dp7
S'niter'
p8
I3
sS'angle'
p9
I60
sS'maxlen'
p10
Finf
sS'LHS'
p11
(lp12
S'F'
p13
aS'G'
p14
asS'RHS'
p15
(lp16
S'F-F+G+F-F'
p17
aS'GGGG'
p18
asS'axiom'
p19
g13
sbsS'distractors'
p20
(lp21
g2
(g3
g4
Ntp22
Rp23
(dp24
g8
I1
sg9
I60
sg15
(lp25
S'F-F++F-F'
p26
aS'GGG'
p27
asg10
Finf
sg11
(lp28
S'F'
p29
aS'G'
p30
asg19
S'F-F+G+F-F-F-F+G+F-F+GGGG+F-F+G+F-F-F-F+G+F-F-F-F+G+F-F-F-F+G+F-F+GGGG+F-F+G+F-F-F-F+G+F-F+GGGGGGGGGGGGGGGG+F-F+G+F-F-F-F+G+F-F+GGGG+F-F+G+F-F-F-F+G+F-F-F-F+G+F-F-F-F+G+F-F+GGGG+F-F+G+F-F-F-F+G+F-F'
p31
sbag2
(g3
g4
Ntp32
Rp33
(dp34
g8
I1
sg9
I60
sg15
(lp35
S'G--F++G++F--G'
p36
aS'GG'
p37
asg10
Finf
sg11
(lp38
g29
ag30
asg19
g31
sbag2
(g3
g4
Ntp39
Rp40
(dp41
g8
I1
sg9
I60
sg15
(lp42
S'G-F++G-G-G++F-G'
p43
aS'GGGGG'
p44
asg10
Finf
sg11
(lp45
g29
ag30
asg19
g31
sbag2
(g3
g4
Ntp46
Rp47
(dp48
g8
I1
sg9
I60
sg15
(lp49
S'F-G-G++F++G-G-F'
p50
aS'GGG'
p51
asg10
Finf
sg11
(lp52
g29
ag30
asg19
g31
sbag2
(g3
g4
Ntp53
Rp54
(dp55
g8
I1
sg9
I60
sg15
(lp56
S'F--G++G+F-G-F+G++G--F'
p57
aS'GGGGG'
p58
asg10
Finf
sg11
(lp59
g29
ag30
asg19
g31
sbas.