(dp0
S'L'
p1
ccopy_reg
_reconstructor
p2
(cLSystem
LSystem
p3
c__builtin__
object
p4
Ntp5
Rp6
(dp7
S'niter'
p8
I3
sS'angle'
p9
I90
sS'maxlen'
p10
Finf
sS'LHS'
p11
(lp12
S'F'
p13
aS'G'
p14
asS'RHS'
p15
(lp16
S'F-G+G+G-F'
p17
aS'GGG'
p18
asS'axiom'
p19
g13
sbsS'distractors'
p20
(lp21
g2
(g3
g4
Ntp22
Rp23
(dp24
g8
I1
sg9
I90
sg15
(lp25
S'G-F+FFFF+F-G'
p26
aS'GGGGGG'
p27
asg10
Finf
sg11
(lp28
S'F'
p29
aS'G'
p30
asg19
S'F-G+G+G-F-GGG+GGG+GGG-F-G+G+G-F-GGGGGGGGG+GGGGGGGGG+GGGGGGGGG-F-G+G+G-F-GGG+GGG+GGG-F-G+G+G-F'
p31
sbag2
(g3
g4
Ntp32
Rp33
(dp34
g8
I1
sg9
I90
sg15
(lp35
S'G-GG+F+GG-G'
p36
aS'GGG'
p37
asg10
Finf
sg11
(lp38
g29
ag30
asg19
g31
sbag2
(g3
g4
Ntp39
Rp40
(dp41
g8
I1
sg9
I90
sg15
(lp42
S'G-F++F-G'
p43
aS'GG'
p44
asg10
Finf
sg11
(lp45
g29
ag30
asg19
g31
sbag2
(g3
g4
Ntp46
Rp47
(dp48
g8
I1
sg9
I90
sg15
(lp49
S'G-FG++G-F-G++GF-G'
p50
aS'GGG'
p51
asg10
Finf
sg11
(lp52
g29
ag30
asg19
g31
sbag2
(g3
g4
Ntp53
Rp54
(dp55
g8
I1
sg9
I90
sg15
(lp56
S'G-F--F-G-F--F-G'
p57
aS'GGG'
p58
asg10
Finf
sg11
(lp59
S'F'
p60
aS'G'
p61
asg19
g31
sbas.