(dp0
S'L'
p1
ccopy_reg
_reconstructor
p2
(cLSystem
LSystem
p3
c__builtin__
object
p4
Ntp5
Rp6
(dp7
S'niter'
p8
I3
sS'angle'
p9
I90
sS'maxlen'
p10
Finf
sS'LHS'
p11
(lp12
S'F'
p13
aS'G'
p14
asS'RHS'
p15
(lp16
S'F-G+F+G-F'
p17
aS'GGG'
p18
asS'axiom'
p19
g13
sbsS'distractors'
p20
(lp21
g2
(g3
g4
Ntp22
Rp23
(dp24
g8
I1
sg9
I90
sg15
(lp25
S'F-G+G-G+F+G-G+G-F'
p26
aS'GGGGG'
p27
asg10
Finf
sg11
(lp28
S'F'
p29
aS'G'
p30
asg19
S'F-G+F+G-F-GGG+F-G+F+G-F+GGG-F-G+F+G-F-GGGGGGGGG+F-G+F+G-F-GGG+F-G+F+G-F+GGG-F-G+F+G-F+GGGGGGGGG-F-G+F+G-F-GGG+F-G+F+G-F+GGG-F-G+F+G-F'
p31
sbag2
(g3
g4
Ntp32
Rp33
(dp34
g8
I1
sg9
I90
sg15
(lp35
S'F-G+F+G-F-G+F+G-F'
p36
aS'GGGGG'
p37
asg10
Finf
sg11
(lp38
g29
ag30
asg19
g31
sbag2
(g3
g4
Ntp39
Rp40
(dp41
g8
I1
sg9
I90
sg15
(lp42
S'F-G++G-F'
p43
aS'GG'
p44
asg10
Finf
sg11
(lp45
g29
aS'G'
p46
asg19
g31
sbag2
(g3
g4
Ntp47
Rp48
(dp49
g8
I1
sg9
I90
sg15
(lp50
S'F-G-F++F++F-G-F'
p51
ag46
asg10
Finf
sg11
(lp52
g29
ag46
asg19
g31
sbag2
(g3
g4
Ntp53
Rp54
(dp55
g8
I1
sg9
I90
sg15
(lp56
S'FG-G+G+G-GF'
p57
aS'GGGGG'
p58
asg10
Finf
sg11
(lp59
S'F'
p60
aS'G'
p61
asg19
g31
sbas.