(dp0
S'L'
p1
ccopy_reg
_reconstructor
p2
(cLSystem
LSystem
p3
c__builtin__
object
p4
Ntp5
Rp6
(dp7
S'niter'
p8
I3
sS'angle'
p9
I90
sS'maxlen'
p10
Finf
sS'LHS'
p11
(lp12
S'F'
p13
aS'G'
p14
asS'RHS'
p15
(lp16
S'G-F+F+F-G'
p17
aS'GGG'
p18
asS'axiom'
p19
g13
sbsS'distractors'
p20
(lp21
g2
(g3
g4
Ntp22
Rp23
(dp24
g8
I1
sg9
I90
sg15
(lp25
S'F-G+G+F-G-F+G+G-F'
p26
aS'GGGGG'
p27
asg10
Finf
sg11
(lp28
S'F'
p29
aS'G'
p30
asg19
S'GGGGGGGGG-GGG-G-F+F+F-G+G-F+F+F-G+G-F+F+F-G-GGG+GGG-G-F+F+F-G+G-F+F+F-G+G-F+F+F-G-GGG+GGG-G-F+F+F-G+G-F+F+F-G+G-F+F+F-G-GGG-GGGGGGGGG'
p31
sbag2
(g3
g4
Ntp32
Rp33
(dp34
g8
I1
sg9
I90
sg15
(lp35
S'F-G+G-G+G+G-G+G-F'
p36
aS'GGGGG'
p37
asg10
Finf
sg11
(lp38
g29
ag30
asg19
g31
sbag2
(g3
g4
Ntp39
Rp40
(dp41
g8
I1
sg9
I90
sg15
(lp42
S'F-FF+F+FF-F'
p43
aS'GGG'
p44
asg10
Finf
sg11
(lp45
g29
aS'G'
p46
asg19
g31
sbag2
(g3
g4
Ntp47
Rp48
(dp49
g8
I1
sg9
I90
sg15
(lp50
S'G-FFF+F+FFF-G'
p51
aS'GGG'
p52
asg10
Finf
sg11
(lp53
g29
ag46
asg19
g31
sbag2
(g3
g4
Ntp54
Rp55
(dp56
g8
I1
sg9
I90
sg15
(lp57
S'F-GG++G-F-G++GG-F'
p58
aS'GGG'
p59
asg10
Finf
sg11
(lp60
g29
ag46
asg19
g31
sbas.