(dp0
S'L'
p1
ccopy_reg
_reconstructor
p2
(cLSystem
LSystem
p3
c__builtin__
object
p4
Ntp5
Rp6
(dp7
S'niter'
p8
I3
sS'angle'
p9
I120
sS'maxlen'
p10
Finf
sS'LHS'
p11
(lp12
S'F'
p13
aS'G'
p14
asS'RHS'
p15
(lp16
S'F-G+G+G-F'
p17
aS'GG'
p18
asS'axiom'
p19
g13
sbsS'distractors'
p20
(lp21
g2
(g3
g4
Ntp22
Rp23
(dp24
g8
I1
sg9
I120
sg15
(lp25
S'G-F+F-G+G-G+F+FF-F-FF+F+G-G+G-F+F-G'
p26
aS'GGGG'
p27
asg10
Finf
sg11
(lp28
S'F'
p29
aS'G'
p30
asg19
S'F-G+G+G-F-GG+GG+GG-F-G+G+G-F-GGGG+GGGG+GGGG-F-G+G+G-F-GG+GG+GG-F-G+G+G-F'
p31
sbag2
(g3
g4
Ntp32
Rp33
(dp34
g8
I1
sg9
I120
sg15
(lp35
S'G-G-G-G'
p36
ag30
asg10
Finf
sg11
(lp37
g29
ag30
asg19
g31
sbag2
(g3
g4
Ntp38
Rp39
(dp40
g8
I1
sg9
I120
sg15
(lp41
S'F-F+FGF+F-F'
p42
aS'GGGG'
p43
asg10
Finf
sg11
(lp44
g29
ag30
asg19
g31
sbag2
(g3
g4
Ntp45
Rp46
(dp47
g8
I1
sg9
I120
sg15
(lp48
S'G-F+GG-G+F+GF+G-G+F+F+F+G-G+FG+F+G-GG+F-G'
p49
aS'GGGG'
p50
asg10
Finf
sg11
(lp51
g29
ag30
asg19
g31
sbag2
(g3
g4
Ntp52
Rp53
(dp54
g8
I1
sg9
I120
sg15
(lp55
S'F-FG-GF-F'
p56
aS'GG'
p57
asg10
Finf
sg11
(lp58
g29
ag30
asg19
g31
sbas.